; ModuleID = '51/775.c'
source_filename = "51/775.c"
target datalayout = "e-m:e-p270:32:32-p271:32:32-p272:64:64-i64:64-f80:128-n8:16:32:64-S128"
target triple = "x86_64-pc-linux-gnu"

@.str = private unnamed_addr constant [3 x i8] c"%d\00", align 1
@.str.1 = private unnamed_addr constant [3 x i8] c"%s\00", align 1
@.str.2 = private unnamed_addr constant [4 x i8] c"NO\0A\00", align 1
@.str.3 = private unnamed_addr constant [4 x i8] c"%d\0A\00", align 1
@.str.4 = private unnamed_addr constant [3 x i8] c"%c\00", align 1
@.str.5 = private unnamed_addr constant [2 x i8] c"\0A\00", align 1

; Function Attrs: noinline nounwind uwtable
define dso_local i32 @main() #0 {
  %1 = alloca i32, align 4
  %2 = alloca i32, align 4
  %3 = alloca i32, align 4
  %4 = alloca [501 x i8], align 16
  %5 = alloca [500 x i8], align 16
  %6 = alloca [500 x i32], align 16
  %7 = alloca i32, align 4
  %8 = alloca i32, align 4
  %9 = alloca i32, align 4
  %10 = alloca i32, align 4
  %11 = alloca [500 x i32], align 16
  %12 = alloca i32, align 4
  %13 = alloca i32, align 4
  %14 = alloca i32, align 4
  %15 = alloca i32, align 4
  %16 = alloca i32, align 4
  store i32 0, i32* %1, align 4
  %17 = call i32 (i8*, ...) @__isoc99_scanf(i8* getelementptr inbounds ([3 x i8], [3 x i8]* @.str, i64 0, i64 0), i32* %2)
  %18 = call i32 (i8*, ...) @__isoc99_scanf(i8* getelementptr inbounds ([3 x i8], [3 x i8]* @.str.1, i64 0, i64 0), [501 x i8]* %4)
  %19 = getelementptr inbounds [501 x i8], [501 x i8]* %4, i64 0, i64 0
  %20 = call i64 @strlen(i8* %19) #4
  %21 = trunc i64 %20 to i32
  store i32 %21, i32* %3, align 4
  %22 = bitcast [500 x i32]* %6 to i8*
  call void @llvm.memset.p0i8.i64(i8* align 16 %22, i8 0, i64 2000, i1 false)
  store i32 0, i32* %7, align 4
  br label %23

23:                                               ; preds = %121, %0
  %24 = load i32, i32* %7, align 4
  %25 = load i32, i32* %3, align 4
  %26 = load i32, i32* %2, align 4
  %27 = sub nsw i32 %26, 1
  %28 = sub nsw i32 %25, %27
  %29 = icmp slt i32 %24, %28
  br i1 %29, label %30, label %124

30:                                               ; preds = %23
  store i32 0, i32* %8, align 4
  br label %31

31:                                               ; preds = %45, %30
  %32 = load i32, i32* %8, align 4
  %33 = load i32, i32* %2, align 4
  %34 = icmp slt i32 %32, %33
  br i1 %34, label %35, label %48

35:                                               ; preds = %31
  %36 = load i32, i32* %7, align 4
  %37 = load i32, i32* %8, align 4
  %38 = add nsw i32 %36, %37
  %39 = sext i32 %38 to i64
  %40 = getelementptr inbounds [501 x i8], [501 x i8]* %4, i64 0, i64 %39
  %41 = load i8, i8* %40, align 1
  %42 = load i32, i32* %8, align 4
  %43 = sext i32 %42 to i64
  %44 = getelementptr inbounds [500 x i8], [500 x i8]* %5, i64 0, i64 %43
  store i8 %41, i8* %44, align 1
  br label %45

45:                                               ; preds = %35
  %46 = load i32, i32* %8, align 4
  %47 = add nsw i32 %46, 1
  store i32 %47, i32* %8, align 4
  br label %31

48:                                               ; preds = %31
  %49 = load i32, i32* %7, align 4
  %50 = sext i32 %49 to i64
  %51 = getelementptr inbounds [500 x i32], [500 x i32]* %6, i64 0, i64 %50
  %52 = load i32, i32* %51, align 4
  %53 = icmp ne i32 %52, 0
  br i1 %53, label %54, label %55

54:                                               ; preds = %48
  br label %121

55:                                               ; preds = %48
  %56 = load i32, i32* %7, align 4
  store i32 %56, i32* %9, align 4
  br label %57

57:                                               ; preds = %116, %55
  %58 = load i32, i32* %9, align 4
  %59 = load i32, i32* %3, align 4
  %60 = load i32, i32* %2, align 4
  %61 = sub nsw i32 %60, 1
  %62 = sub nsw i32 %59, %61
  %63 = icmp slt i32 %58, %62
  br i1 %63, label %64, label %119

64:                                               ; preds = %57
  store i32 0, i32* %10, align 4
  br label %65

65:                                               ; preds = %112, %64
  %66 = load i32, i32* %10, align 4
  %67 = load i32, i32* %2, align 4
  %68 = add nsw i32 %67, 1
  %69 = icmp slt i32 %66, %68
  br i1 %69, label %70, label %115

70:                                               ; preds = %65
  %71 = load i32, i32* %10, align 4
  %72 = load i32, i32* %2, align 4
  %73 = icmp eq i32 %71, %72
  br i1 %73, label %74, label %95

74:                                               ; preds = %70
  %75 = load i32, i32* %9, align 4
  %76 = sext i32 %75 to i64
  %77 = getelementptr inbounds [500 x i32], [500 x i32]* %6, i64 0, i64 %76
  %78 = load i32, i32* %77, align 4
  %79 = add nsw i32 %78, 1
  store i32 %79, i32* %77, align 4
  %80 = load i32, i32* %7, align 4
  %81 = sext i32 %80 to i64
  %82 = getelementptr inbounds [500 x i32], [500 x i32]* %6, i64 0, i64 %81
  %83 = load i32, i32* %82, align 4
  %84 = add nsw i32 %83, 1
  store i32 %84, i32* %82, align 4
  %85 = load i32, i32* %9, align 4
  %86 = load i32, i32* %7, align 4
  %87 = icmp eq i32 %85, %86
  br i1 %87, label %88, label %94

88:                                               ; preds = %74
  %89 = load i32, i32* %7, align 4
  %90 = sext i32 %89 to i64
  %91 = getelementptr inbounds [500 x i32], [500 x i32]* %6, i64 0, i64 %90
  %92 = load i32, i32* %91, align 4
  %93 = add nsw i32 %92, -1
  store i32 %93, i32* %91, align 4
  br label %94

94:                                               ; preds = %88, %74
  br label %115

95:                                               ; preds = %70
  %96 = load i32, i32* %10, align 4
  %97 = sext i32 %96 to i64
  %98 = getelementptr inbounds [500 x i8], [500 x i8]* %5, i64 0, i64 %97
  %99 = load i8, i8* %98, align 1
  %100 = sext i8 %99 to i32
  %101 = load i32, i32* %9, align 4
  %102 = load i32, i32* %10, align 4
  %103 = add nsw i32 %101, %102
  %104 = sext i32 %103 to i64
  %105 = getelementptr inbounds [501 x i8], [501 x i8]* %4, i64 0, i64 %104
  %106 = load i8, i8* %105, align 1
  %107 = sext i8 %106 to i32
  %108 = icmp ne i32 %100, %107
  br i1 %108, label %109, label %110

109:                                              ; preds = %95
  br label %115

110:                                              ; preds = %95
  br label %111

111:                                              ; preds = %110
  br label %112

112:                                              ; preds = %111
  %113 = load i32, i32* %10, align 4
  %114 = add nsw i32 %113, 1
  store i32 %114, i32* %10, align 4
  br label %65

115:                                              ; preds = %109, %94, %65
  br label %116

116:                                              ; preds = %115
  %117 = load i32, i32* %9, align 4
  %118 = add nsw i32 %117, 1
  store i32 %118, i32* %9, align 4
  br label %57

119:                                              ; preds = %57
  br label %120

120:                                              ; preds = %119
  br label %121

121:                                              ; preds = %120, %54
  %122 = load i32, i32* %7, align 4
  %123 = add nsw i32 %122, 1
  store i32 %123, i32* %7, align 4
  br label %23

124:                                              ; preds = %23
  store i32 0, i32* %12, align 4
  store i32 0, i32* %13, align 4
  store i32 0, i32* %14, align 4
  br label %125

125:                                              ; preds = %165, %124
  %126 = load i32, i32* %14, align 4
  %127 = load i32, i32* %3, align 4
  %128 = load i32, i32* %2, align 4
  %129 = sub nsw i32 %128, 1
  %130 = sub nsw i32 %127, %129
  %131 = icmp slt i32 %126, %130
  br i1 %131, label %132, label %168

132:                                              ; preds = %125
  %133 = load i32, i32* %12, align 4
  %134 = load i32, i32* %14, align 4
  %135 = sext i32 %134 to i64
  %136 = getelementptr inbounds [500 x i32], [500 x i32]* %6, i64 0, i64 %135
  %137 = load i32, i32* %136, align 4
  %138 = icmp eq i32 %133, %137
  br i1 %138, label %139, label %146

139:                                              ; preds = %132
  %140 = load i32, i32* %14, align 4
  %141 = load i32, i32* %13, align 4
  %142 = sext i32 %141 to i64
  %143 = getelementptr inbounds [500 x i32], [500 x i32]* %11, i64 0, i64 %142
  store i32 %140, i32* %143, align 4
  %144 = load i32, i32* %13, align 4
  %145 = add nsw i32 %144, 1
  store i32 %145, i32* %13, align 4
  br label %146

146:                                              ; preds = %139, %132
  %147 = load i32, i32* %12, align 4
  %148 = load i32, i32* %14, align 4
  %149 = sext i32 %148 to i64
  %150 = getelementptr inbounds [500 x i32], [500 x i32]* %6, i64 0, i64 %149
  %151 = load i32, i32* %150, align 4
  %152 = icmp slt i32 %147, %151
  br i1 %152, label %153, label %164

153:                                              ; preds = %146
  store i32 0, i32* %13, align 4
  %154 = load i32, i32* %14, align 4
  %155 = load i32, i32* %13, align 4
  %156 = sext i32 %155 to i64
  %157 = getelementptr inbounds [500 x i32], [500 x i32]* %11, i64 0, i64 %156
  store i32 %154, i32* %157, align 4
  %158 = load i32, i32* %13, align 4
  %159 = add nsw i32 %158, 1
  store i32 %159, i32* %13, align 4
  %160 = load i32, i32* %14, align 4
  %161 = sext i32 %160 to i64
  %162 = getelementptr inbounds [500 x i32], [500 x i32]* %6, i64 0, i64 %161
  %163 = load i32, i32* %162, align 4
  store i32 %163, i32* %12, align 4
  br label %164

164:                                              ; preds = %153, %146
  br label %165

165:                                              ; preds = %164
  %166 = load i32, i32* %14, align 4
  %167 = add nsw i32 %166, 1
  store i32 %167, i32* %14, align 4
  br label %125

168:                                              ; preds = %125
  %169 = load i32, i32* %12, align 4
  %170 = icmp eq i32 %169, 1
  br i1 %170, label %171, label %173

171:                                              ; preds = %168
  %172 = call i32 (i8*, ...) @printf(i8* getelementptr inbounds ([4 x i8], [4 x i8]* @.str.2, i64 0, i64 0))
  br label %206

173:                                              ; preds = %168
  %174 = load i32, i32* %12, align 4
  %175 = call i32 (i8*, ...) @printf(i8* getelementptr inbounds ([4 x i8], [4 x i8]* @.str.3, i64 0, i64 0), i32 %174)
  store i32 0, i32* %15, align 4
  br label %176

176:                                              ; preds = %202, %173
  %177 = load i32, i32* %15, align 4
  %178 = load i32, i32* %13, align 4
  %179 = icmp slt i32 %177, %178
  br i1 %179, label %180, label %205

180:                                              ; preds = %176
  store i32 0, i32* %16, align 4
  br label %181

181:                                              ; preds = %197, %180
  %182 = load i32, i32* %16, align 4
  %183 = load i32, i32* %2, align 4
  %184 = icmp slt i32 %182, %183
  br i1 %184, label %185, label %200

185:                                              ; preds = %181
  %186 = load i32, i32* %15, align 4
  %187 = sext i32 %186 to i64
  %188 = getelementptr inbounds [500 x i32], [500 x i32]* %11, i64 0, i64 %187
  %189 = load i32, i32* %188, align 4
  %190 = load i32, i32* %16, align 4
  %191 = add nsw i32 %189, %190
  %192 = sext i32 %191 to i64
  %193 = getelementptr inbounds [501 x i8], [501 x i8]* %4, i64 0, i64 %192
  %194 = load i8, i8* %193, align 1
  %195 = sext i8 %194 to i32
  %196 = call i32 (i8*, ...) @printf(i8* getelementptr inbounds ([3 x i8], [3 x i8]* @.str.4, i64 0, i64 0), i32 %195)
  br label %197

197:                                              ; preds = %185
  %198 = load i32, i32* %16, align 4
  %199 = add nsw i32 %198, 1
  store i32 %199, i32* %16, align 4
  br label %181

200:                                              ; preds = %181
  %201 = call i32 (i8*, ...) @printf(i8* getelementptr inbounds ([2 x i8], [2 x i8]* @.str.5, i64 0, i64 0))
  br label %202

202:                                              ; preds = %200
  %203 = load i32, i32* %15, align 4
  %204 = add nsw i32 %203, 1
  store i32 %204, i32* %15, align 4
  br label %176

205:                                              ; preds = %176
  br label %206

206:                                              ; preds = %205, %171
  ret i32 0
}

declare dso_local i32 @__isoc99_scanf(i8*, ...) #1

; Function Attrs: nounwind readonly
declare dso_local i64 @strlen(i8*) #2

; Function Attrs: argmemonly nounwind willreturn
declare void @llvm.memset.p0i8.i64(i8* nocapture writeonly, i8, i64, i1 immarg) #3

declare dso_local i32 @printf(i8*, ...) #1


!llvm.module.flags = !{!0}
!llvm.ident = !{!1}

!0 = !{i32 1, !"wchar_size", i32 4}
!1 = !{!"clang version 10.0.0-4ubuntu1 "}
